target datalayout = "e-m:e-p270:32:32-p271:32:32-p272:64:64-i64:64-i128:128-f80:128-n8:16:32:64-S128"
target triple = "x86_64-pc-linux-gnu"

%"class.cv::ccm::Operations" = type { ptr, %"class.std::vector" }
%"class.std::vector" = type { %"struct.std::_Vector_base" }
%"struct.std::_Vector_base" = type { %"struct.std::_Vector_base<cv::ccm::Operation, std::allocator<cv::ccm::Operation>>::_Vector_impl" }
%"struct.std::_Vector_base<cv::ccm::Operation, std::allocator<cv::ccm::Operation>>::_Vector_impl" = type { %"struct.std::_Vector_base<cv::ccm::Operation, std::allocator<cv::ccm::Operation>>::_Vector_impl_data" }
%"struct.std::_Vector_base<cv::ccm::Operation, std::allocator<cv::ccm::Operation>>::_Vector_impl_data" = type { ptr, ptr, ptr }
%"class.cv::ccm::ColorSpace" = type { ptr, %"class.cv::ccm::IO", %"class.std::__cxx11::basic_string", i8, %"class.cv::ccm::Operations", %"class.cv::ccm::Operations", ptr, ptr }
%"class.cv::ccm::IO" = type { ptr, %"class.std::__cxx11::basic_string", %"class.std::__cxx11::basic_string" }
%"class.std::__cxx11::basic_string" = type { %"struct.std::__cxx11::basic_string<char>::_Alloc_hider", i64, %union.anon }
%"struct.std::__cxx11::basic_string<char>::_Alloc_hider" = type { ptr }
%union.anon = type { i64, [8 x i8] }

; Function Attrs: mustprogress uwtable
define hidden void @_ZN2cv3ccm8RGBBase_4initEv(ptr noundef nonnull align 8 dereferenceable(440) %0) #4 align 2 {
  %2 = alloca ptr, align 8
  store ptr %0, ptr %2, align 8, !tbaa !34
  %3 = load ptr, ptr %2, align 8
  %4 = load ptr, ptr %3, align 8, !tbaa !18
  %5 = getelementptr inbounds ptr, ptr %4, i64 6
  %6 = load ptr, ptr %5, align 8
  call void %6(ptr noundef nonnull align 8 dereferenceable(440) %3)
  %7 = load ptr, ptr %3, align 8, !tbaa !18
  %8 = getelementptr inbounds ptr, ptr %7, i64 9
  %9 = load ptr, ptr %8, align 8
  call void %9(ptr noundef nonnull align 8 dereferenceable(440) %3)
  %10 = load ptr, ptr %3, align 8, !tbaa !18
  %11 = getelementptr inbounds ptr, ptr %10, i64 7
  %12 = load ptr, ptr %11, align 8
  call void %12(ptr noundef nonnull align 8 dereferenceable(440) %3)
  %13 = load ptr, ptr %3, align 8, !tbaa !18
  %14 = getelementptr inbounds ptr, ptr %13, i64 8
  %15 = load ptr, ptr %14, align 8
  call void %15(ptr noundef nonnull align 8 dereferenceable(440) %3)
  ret void
}

; Function Attrs: mustprogress uwtable
define hidden void @_ZN2cv3ccm8RGBBase_4bindERS1_(ptr noundef nonnull align 8 dereferenceable(440) %0, ptr noundef nonnull align 8 dereferenceable(440) %1) #4 align 2 {
  %3 = alloca ptr, align 8
  %4 = alloca ptr, align 8
  store ptr %0, ptr %3, align 8, !tbaa !34
  store ptr %1, ptr %4, align 8, !tbaa !34
  %5 = load ptr, ptr %3, align 8
  call void @_ZN2cv3ccm8RGBBase_4initEv(ptr noundef nonnull align 8 dereferenceable(440) %5)
  %6 = load ptr, ptr %4, align 8, !tbaa !34
  call void @_ZN2cv3ccm8RGBBase_4initEv(ptr noundef nonnull align 8 dereferenceable(440) %6)
  %7 = load ptr, ptr %4, align 8, !tbaa !34
  %8 = getelementptr inbounds nuw %"class.cv::ccm::ColorSpace", ptr %5, i32 0, i32 6
  store ptr %7, ptr %8, align 8, !tbaa !60
  %9 = load ptr, ptr %4, align 8, !tbaa !34
  %10 = load ptr, ptr %4, align 8, !tbaa !34
  %11 = getelementptr inbounds nuw %"class.cv::ccm::ColorSpace", ptr %10, i32 0, i32 6
  store ptr %9, ptr %11, align 8, !tbaa !60
  %12 = getelementptr inbounds nuw %"class.cv::ccm::ColorSpace", ptr %5, i32 0, i32 7
  store ptr %5, ptr %12, align 8, !tbaa !61
  %13 = load ptr, ptr %4, align 8, !tbaa !34
  %14 = getelementptr inbounds nuw %"class.cv::ccm::ColorSpace", ptr %13, i32 0, i32 7
  store ptr %5, ptr %14, align 8, !tbaa !61
  ret void
}