; Function Attrs: mustprogress uwtable
define hidden void @_ZN2cv3ccm8RGBBase_4bindERS1_(ptr noundef nonnull align 8 dereferenceable(440) %0, ptr noundef nonnull align 8 dereferenceable(440) %1) local_unnamed_addr #3 align 2 {
  %3 = load ptr, ptr %0, align 8, !tbaa !12
  %4 = getelementptr inbounds nuw i8, ptr %3, i64 48
  %5 = load ptr, ptr %4, align 8
  tail call void %5(ptr noundef nonnull align 8 dereferenceable(440) %0)
  %6 = load ptr, ptr %0, align 8, !tbaa !12
  %7 = getelementptr inbounds nuw i8, ptr %6, i64 72
  %8 = load ptr, ptr %7, align 8
  tail call void %8(ptr noundef nonnull align 8 dereferenceable(440) %0)
  %9 = load ptr, ptr %0, align 8, !tbaa !12
  %10 = getelementptr inbounds nuw i8, ptr %9, i64 56
  %11 = load ptr, ptr %10, align 8
  tail call void %11(ptr noundef nonnull align 8 dereferenceable(440) %0)
  %12 = load ptr, ptr %0, align 8, !tbaa !12
  %13 = getelementptr inbounds nuw i8, ptr %12, i64 64
  %14 = load ptr, ptr %13, align 8
  tail call void %14(ptr noundef nonnull align 8 dereferenceable(440) %0)
  %15 = load ptr, ptr %1, align 8, !tbaa !12
  %16 = getelementptr inbounds nuw i8, ptr %15, i64 48
  %17 = load ptr, ptr %16, align 8
  tail call void %17(ptr noundef nonnull align 8 dereferenceable(440) %1)
  %18 = load ptr, ptr %1, align 8, !tbaa !12
  %19 = getelementptr inbounds nuw i8, ptr %18, i64 72
  %20 = load ptr, ptr %19, align 8
  tail call void %20(ptr noundef nonnull align 8 dereferenceable(440) %1)
  %21 = load ptr, ptr %1, align 8, !tbaa !12
  %22 = getelementptr inbounds nuw i8, ptr %21, i64 56
  %23 = load ptr, ptr %22, align 8
  tail call void %23(ptr noundef nonnull align 8 dereferenceable(440) %1)
  %24 = load ptr, ptr %1, align 8, !tbaa !12
  %25 = getelementptr inbounds nuw i8, ptr %24, i64 64
  %26 = load ptr, ptr %25, align 8
  tail call void %26(ptr noundef nonnull align 8 dereferenceable(440) %1)
  %27 = getelementptr inbounds nuw i8, ptr %0, i64 184
  store ptr %1, ptr %27, align 8, !tbaa !48
  %28 = getelementptr inbounds nuw i8, ptr %1, i64 184
  store ptr %1, ptr %28, align 8, !tbaa !48
  %29 = getelementptr inbounds nuw i8, ptr %0, i64 192
  store ptr %0, ptr %29, align 8, !tbaa !49
  %30 = getelementptr inbounds nuw i8, ptr %1, i64 192
  store ptr %0, ptr %30, align 8, !tbaa !49
  ret void
}